; ModuleID = '30/2078.c'
source_filename = "30/2078.c"
target datalayout = "e-m:e-p270:32:32-p271:32:32-p272:64:64-i64:64-f80:128-n8:16:32:64-S128"
target triple = "x86_64-pc-linux-gnu"

@.str = private unnamed_addr constant [3 x i8] c"%d\00", align 1

; Function Attrs: noinline nounwind uwtable
define dso_local i32 @main() #0 {
  %1 = alloca i32, align 4
  %2 = alloca i32, align 4
  %3 = alloca i32, align 4
  %4 = alloca i32, align 4
  store i32 0, i32* %1, align 4
  store i32 0, i32* %3, align 4
  %5 = call i32 (i8*, ...) @__isoc99_scanf(i8* getelementptr inbounds ([3 x i8], [3 x i8]* @.str, i64 0, i64 0), i32* %2)
  store i32 1, i32* %4, align 4
  br label %6

6:                                                ; preds = %46, %0
  %7 = load i32, i32* %4, align 4
  %8 = load i32, i32* %2, align 4
  %9 = icmp sle i32 %7, %8
  br i1 %9, label %10, label %49

10:                                               ; preds = %6
  %11 = load i32, i32* %4, align 4
  %12 = icmp slt i32 %11, 70
  br i1 %12, label %13, label %27

13:                                               ; preds = %10
  %14 = load i32, i32* %4, align 4
  %15 = srem i32 %14, 10
  %16 = icmp ne i32 %15, 7
  br i1 %16, label %17, label %27

17:                                               ; preds = %13
  %18 = load i32, i32* %4, align 4
  %19 = srem i32 %18, 7
  %20 = icmp ne i32 %19, 0
  br i1 %20, label %21, label %27

21:                                               ; preds = %17
  %22 = load i32, i32* %4, align 4
  %23 = load i32, i32* %4, align 4
  %24 = mul nsw i32 %22, %23
  %25 = load i32, i32* %3, align 4
  %26 = add nsw i32 %25, %24
  store i32 %26, i32* %3, align 4
  br label %45

27:                                               ; preds = %17, %13, %10
  %28 = load i32, i32* %4, align 4
  %29 = icmp sgt i32 %28, 79
  br i1 %29, label %30, label %44

30:                                               ; preds = %27
  %31 = load i32, i32* %4, align 4
  %32 = srem i32 %31, 10
  %33 = icmp ne i32 %32, 7
  br i1 %33, label %34, label %44

34:                                               ; preds = %30
  %35 = load i32, i32* %4, align 4
  %36 = srem i32 %35, 7
  %37 = icmp ne i32 %36, 0
  br i1 %37, label %38, label %44

38:                                               ; preds = %34
  %39 = load i32, i32* %4, align 4
  %40 = load i32, i32* %4, align 4
  %41 = mul nsw i32 %39, %40
  %42 = load i32, i32* %3, align 4
  %43 = add nsw i32 %42, %41
  store i32 %43, i32* %3, align 4
  br label %44

44:                                               ; preds = %38, %34, %30, %27
  br label %45

45:                                               ; preds = %44, %21
  br label %46

46:                                               ; preds = %45
  %47 = load i32, i32* %4, align 4
  %48 = add nsw i32 %47, 1
  store i32 %48, i32* %4, align 4
  br label %6

49:                                               ; preds = %6
  %50 = load i32, i32* %3, align 4
  %51 = call i32 (i8*, ...) @printf(i8* getelementptr inbounds ([3 x i8], [3 x i8]* @.str, i64 0, i64 0), i32 %50)
  ret i32 0
}

declare dso_local i32 @__isoc99_scanf(i8*, ...) #1

declare dso_local i32 @printf(i8*, ...) #1


!llvm.module.flags = !{!0}
!llvm.ident = !{!1}

!0 = !{i32 1, !"wchar_size", i32 4}
!1 = !{!"clang version 10.0.0-4ubuntu1 "}
